target datalayout = "e-m:e-p270:32:32-p271:32:32-p272:64:64-i64:64-i128:128-f80:128-n8:16:32:64-S128"
target triple = "x86_64-pc-linux-gnu"

%class.anon = type { i8 }
%"struct.arrow::ArraySpan" = type { ptr, i64, i64, i64, [3 x %"struct.arrow::BufferSpan"], %"class.std::vector" }
%"struct.arrow::BufferSpan" = type { ptr, i64, ptr }
%"class.std::vector" = type { %"struct.std::_Vector_base" }
%"struct.std::_Vector_base" = type { %"struct.std::_Vector_base<arrow::ArraySpan, std::allocator<arrow::ArraySpan>>::_Vector_impl" }
%"struct.std::_Vector_base<arrow::ArraySpan, std::allocator<arrow::ArraySpan>>::_Vector_impl" = type { %"struct.std::_Vector_base<arrow::ArraySpan, std::allocator<arrow::ArraySpan>>::_Vector_impl_data" }
%"struct.std::_Vector_base<arrow::ArraySpan, std::allocator<arrow::ArraySpan>>::_Vector_impl_data" = type { ptr, ptr, ptr }
%"class.arrow::DataType" = type { %"class.arrow::detail::Fingerprintable", %"class.std::enable_shared_from_this", i32, %"class.std::vector.0" }
%"class.arrow::detail::Fingerprintable" = type { ptr, %"struct.std::atomic", %"struct.std::atomic" }
%"struct.std::atomic" = type { %"struct.std::__atomic_base" }
%"struct.std::__atomic_base" = type { ptr }
%"class.std::enable_shared_from_this" = type { %"class.std::weak_ptr" }
%"class.std::weak_ptr" = type { %"class.std::__weak_ptr" }
%"class.std::__weak_ptr" = type { ptr, %"class.std::__weak_count" }
%"class.std::__weak_count" = type { ptr }
%"class.std::vector.0" = type { %"struct.std::_Vector_base.1" }
%"struct.std::_Vector_base.1" = type { %"struct.std::_Vector_base<std::shared_ptr<arrow::Field>, std::allocator<std::shared_ptr<arrow::Field>>>::_Vector_impl" }
%"struct.std::_Vector_base<std::shared_ptr<arrow::Field>, std::allocator<std::shared_ptr<arrow::Field>>>::_Vector_impl" = type { %"struct.std::_Vector_base<std::shared_ptr<arrow::Field>, std::allocator<std::shared_ptr<arrow::Field>>>::_Vector_impl_data" }
%"struct.std::_Vector_base<std::shared_ptr<arrow::Field>, std::allocator<std::shared_ptr<arrow::Field>>>::_Vector_impl_data" = type { ptr, ptr, ptr }

; Function Attrs: mustprogress nounwind uwtable
define linkonce_odr noundef zeroext i1 @_ZN5arrow20is_fixed_size_binaryENS_4Type4typeE(i32 noundef %0) #3 comdat {
  %2 = alloca i1, align 1
  %3 = alloca i32, align 4
  store i32 %0, ptr %3, align 4, !tbaa !26
  %4 = load i32, ptr %3, align 4, !tbaa !26
  switch i32 %4, label %6 [
    i32 43, label %5
    i32 44, label %5
    i32 23, label %5
    i32 24, label %5
    i32 15, label %5
  ]

5:                                                ; preds = %1, %1, %1, %1, %1
  store i1 true, ptr %2, align 1
  br label %8

6:                                                ; preds = %1
  br label %7

7:                                                ; preds = %6
  store i1 false, ptr %2, align 1
  br label %8

8:                                                ; preds = %7, %5
  %9 = load i1, ptr %2, align 1
  ret i1 %9
}

; Function Attrs: mustprogress nounwind uwtable
define linkonce_odr noundef zeroext i1 @_ZN5arrow13is_dictionaryENS_4Type4typeE(i32 noundef %0) #3 comdat {
  %2 = alloca i32, align 4
  store i32 %0, ptr %2, align 4, !tbaa !26
  %3 = load i32, ptr %2, align 4, !tbaa !26
  %4 = icmp eq i32 %3, 29
  ret i1 %4
}

; Function Attrs: mustprogress nounwind uwtable
define linkonce_odr noundef zeroext i1 @_ZN5arrow12is_primitiveENS_4Type4typeE(i32 noundef %0) #3 comdat {
  %2 = alloca i1, align 1
  %3 = alloca i32, align 4
  store i32 %0, ptr %3, align 4, !tbaa !26
  %4 = load i32, ptr %3, align 4, !tbaa !26
  switch i32 %4, label %6 [
    i32 1, label %5
    i32 2, label %5
    i32 3, label %5
    i32 4, label %5
    i32 5, label %5
    i32 6, label %5
    i32 7, label %5
    i32 8, label %5
    i32 9, label %5
    i32 10, label %5
    i32 11, label %5
    i32 12, label %5
    i32 16, label %5
    i32 17, label %5
    i32 19, label %5
    i32 20, label %5
    i32 18, label %5
    i32 33, label %5
    i32 21, label %5
    i32 37, label %5
    i32 22, label %5
  ]

5:                                                ; preds = %1, %1, %1, %1, %1, %1, %1, %1, %1, %1, %1, %1, %1, %1, %1, %1, %1, %1, %1, %1, %1
  store i1 true, ptr %2, align 1
  br label %8

6:                                                ; preds = %1
  br label %7

7:                                                ; preds = %6
  store i1 false, ptr %2, align 1
  br label %8

8:                                                ; preds = %7, %5
  %9 = load i1, ptr %2, align 1
  ret i1 %9
}

; Function Attrs: mustprogress nounwind uwtable
define linkonce_odr noundef nonnull align 8 dereferenceable(128) ptr @_ZNKSt6vectorIN5arrow9ArraySpanESaIS1_EEixEm(ptr noundef nonnull align 8 dereferenceable(24) %0, i64 noundef %1) #3 comdat align 2 {
  %3 = alloca ptr, align 8
  %4 = alloca i64, align 8
  store ptr %0, ptr %3, align 8, !tbaa !126
  store i64 %1, ptr %4, align 8, !tbaa !50
  %5 = load ptr, ptr %3, align 8
  %6 = getelementptr inbounds nuw %"struct.std::_Vector_base", ptr %5, i32 0, i32 0
  %7 = getelementptr inbounds nuw %"struct.std::_Vector_base<arrow::ArraySpan, std::allocator<arrow::ArraySpan>>::_Vector_impl_data", ptr %6, i32 0, i32 0
  %8 = load ptr, ptr %7, align 8, !tbaa !128
  %9 = load i64, ptr %4, align 8, !tbaa !50
  %10 = getelementptr inbounds nuw %"struct.arrow::ArraySpan", ptr %8, i64 %9
  ret ptr %10
}

; Function Attrs: inlinehint mustprogress nounwind uwtable
define internal noundef zeroext i1 @"_ZZN5arrow4util16IsFixedWidthLikeERKNS_9ArraySpanEbbENK3$_0clERKNS_8DataTypeE"(ptr noundef nonnull align 1 dereferenceable(1) %0, ptr noundef nonnull align 8 dereferenceable(72) %1) #4 align 2 {
  %3 = alloca ptr, align 8
  %4 = alloca ptr, align 8
  store ptr %0, ptr %3, align 8, !tbaa !157
  store ptr %1, ptr %4, align 8, !tbaa !22
  %5 = load ptr, ptr %3, align 8
  %6 = getelementptr inbounds nuw %class.anon, ptr %5, i32 0, i32 0
  %7 = load i8, ptr %6, align 1, !tbaa !12, !range !10, !noundef !11
  %8 = trunc i8 %7 to i1
  br i1 %8, label %9, label %19

9:                                                ; preds = %2
  %10 = load ptr, ptr %4, align 8, !tbaa !22
  %11 = call noundef i32 @_ZNK5arrow8DataType2idEv(ptr noundef nonnull align 8 dereferenceable(72) %10)
  %12 = icmp ne i32 %11, 29
  br i1 %12, label %13, label %17

13:                                               ; preds = %9
  %14 = load ptr, ptr %4, align 8, !tbaa !22
  %15 = call noundef i32 @_ZNK5arrow8DataType2idEv(ptr noundef nonnull align 8 dereferenceable(72) %14)
  %16 = icmp ne i32 %15, 1
  br label %17

17:                                               ; preds = %13, %9
  %18 = phi i1 [ false, %9 ], [ %16, %13 ]
  br label %19

19:                                               ; preds = %17, %2
  %20 = phi i1 [ true, %2 ], [ %18, %17 ]
  ret i1 %20
}

; Function Attrs: mustprogress uwtable
define linkonce_odr noundef zeroext i1 @_ZN5arrow14is_fixed_widthENS_4Type4typeE(i32 noundef %0) #0 comdat {
  %2 = alloca i32, align 4
  store i32 %0, ptr %2, align 4, !tbaa !26
  %3 = load i32, ptr %2, align 4, !tbaa !26
  %4 = call noundef zeroext i1 @_ZN5arrow12is_primitiveENS_4Type4typeE(i32 noundef %3)
  br i1 %4, label %11, label %5

5:                                                ; preds = %1
  %6 = load i32, ptr %2, align 4, !tbaa !26
  %7 = call noundef zeroext i1 @_ZN5arrow13is_dictionaryENS_4Type4typeE(i32 noundef %6)
  br i1 %7, label %11, label %8

8:                                                ; preds = %5
  %9 = load i32, ptr %2, align 4, !tbaa !26
  %10 = call noundef zeroext i1 @_ZN5arrow20is_fixed_size_binaryENS_4Type4typeE(i32 noundef %9)
  br label %11

11:                                               ; preds = %8, %5, %1
  %12 = phi i1 [ true, %5 ], [ true, %1 ], [ %10, %8 ]
  ret i1 %12
}

; Function Attrs: mustprogress nounwind uwtable
define linkonce_odr noundef i32 @_ZNK5arrow8DataType2idEv(ptr noundef nonnull align 8 dereferenceable(72) %0) #3 comdat align 2 {
  %2 = alloca ptr, align 8
  store ptr %0, ptr %2, align 8, !tbaa !22
  %3 = load ptr, ptr %2, align 8
  %4 = getelementptr inbounds nuw %"class.arrow::DataType", ptr %3, i32 0, i32 2
  %5 = load i32, ptr %4, align 8, !tbaa !34
  ret i32 %5
}

; Function Attrs: inlinehint mustprogress uwtable
define internal noundef zeroext i1 @"_ZN5arrow4util16IsFixedWidthLikeIZNS0_16IsFixedWidthLikeERKNS_9ArraySpanEbbE3$_0EEbS4_bT_"(ptr noundef nonnull align 8 dereferenceable(128) %0, i1 noundef zeroext %1, i8 %2) #1 {
  %4 = alloca i1, align 1
  %5 = alloca %class.anon, align 1
  %6 = alloca ptr, align 8
  %7 = alloca i8, align 1
  %8 = alloca ptr, align 8
  %9 = alloca i32, align 4
  %10 = alloca ptr, align 8
  %11 = getelementptr inbounds nuw %class.anon, ptr %5, i32 0, i32 0
  store i8 %2, ptr %11, align 1
  store ptr %0, ptr %6, align 8, !tbaa !3
  %12 = zext i1 %1 to i8
  store i8 %12, ptr %7, align 1, !tbaa !8
  call void @llvm.lifetime.start.p0(i64 8, ptr %8) #20
  %13 = load ptr, ptr %6, align 8, !tbaa !3
  %14 = getelementptr inbounds nuw %"struct.arrow::ArraySpan", ptr %13, i32 0, i32 0
  %15 = load ptr, ptr %14, align 8, !tbaa !14
  store ptr %15, ptr %8, align 8, !tbaa !22
  %16 = load ptr, ptr %8, align 8, !tbaa !22
  %17 = call noundef i32 @_ZNK5arrow8DataType2idEv(ptr noundef nonnull align 8 dereferenceable(72) %16)
  %18 = call noundef zeroext i1 @_ZN5arrow14is_fixed_widthENS_4Type4typeE(i32 noundef %17)
  br i1 %18, label %19, label %23

19:                                               ; preds = %3
  %20 = load ptr, ptr %8, align 8, !tbaa !22
  %21 = call noundef zeroext i1 @"_ZZN5arrow4util16IsFixedWidthLikeERKNS_9ArraySpanEbbENK3$_0clERKNS_8DataTypeE"(ptr noundef nonnull align 1 dereferenceable(1) %5, ptr noundef nonnull align 8 dereferenceable(72) %20)
  br i1 %21, label %22, label %23

22:                                               ; preds = %19
  store i1 true, ptr %4, align 1
  store i32 1, ptr %9, align 4
  br label %69

23:                                               ; preds = %19, %3
  %24 = load ptr, ptr %8, align 8, !tbaa !22
  %25 = call noundef i32 @_ZNK5arrow8DataType2idEv(ptr noundef nonnull align 8 dereferenceable(72) %24)
  %26 = icmp eq i32 %25, 32
  br i1 %26, label %27, label %68

27:                                               ; preds = %23
  call void @llvm.lifetime.start.p0(i64 8, ptr %10) #20
  %28 = load ptr, ptr %6, align 8, !tbaa !3
  %29 = getelementptr inbounds nuw %"struct.arrow::ArraySpan", ptr %28, i32 0, i32 5
  %30 = call noundef nonnull align 8 dereferenceable(128) ptr @_ZNKSt6vectorIN5arrow9ArraySpanESaIS1_EEixEm(ptr noundef nonnull align 8 dereferenceable(24) %29, i64 noundef 0) #20
  store ptr %30, ptr %10, align 8, !tbaa !3
  br label %31

31:                                               ; preds = %51, %27
  %32 = load i8, ptr %7, align 1, !tbaa !8, !range !10, !noundef !11
  %33 = trunc i8 %32 to i1
  br i1 %33, label %34, label %37

34:                                               ; preds = %31
  %35 = load ptr, ptr %10, align 8, !tbaa !3
  %36 = call noundef i64 @_ZNK5arrow9ArraySpan12GetNullCountEv(ptr noundef nonnull align 8 dereferenceable(128) %35)
  br label %41

37:                                               ; preds = %31
  %38 = load ptr, ptr %10, align 8, !tbaa !3
  %39 = getelementptr inbounds nuw %"struct.arrow::ArraySpan", ptr %38, i32 0, i32 2
  %40 = load i64, ptr %39, align 8, !tbaa !23
  br label %41

41:                                               ; preds = %37, %34
  %42 = phi i64 [ %36, %34 ], [ %40, %37 ]
  %43 = icmp eq i64 %42, 0
  br i1 %43, label %44, label %64

44:                                               ; preds = %41
  %45 = load ptr, ptr %10, align 8, !tbaa !3
  %46 = getelementptr inbounds nuw %"struct.arrow::ArraySpan", ptr %45, i32 0, i32 0
  %47 = load ptr, ptr %46, align 8, !tbaa !14
  store ptr %47, ptr %8, align 8, !tbaa !22
  %48 = load ptr, ptr %8, align 8, !tbaa !22
  %49 = call noundef i32 @_ZNK5arrow8DataType2idEv(ptr noundef nonnull align 8 dereferenceable(72) %48)
  %50 = icmp eq i32 %49, 32
  br i1 %50, label %51, label %55

51:                                               ; preds = %44
  %52 = load ptr, ptr %10, align 8, !tbaa !3
  %53 = getelementptr inbounds nuw %"struct.arrow::ArraySpan", ptr %52, i32 0, i32 5
  %54 = call noundef nonnull align 8 dereferenceable(128) ptr @_ZNKSt6vectorIN5arrow9ArraySpanESaIS1_EEixEm(ptr noundef nonnull align 8 dereferenceable(24) %53, i64 noundef 0) #20
  store ptr %54, ptr %10, align 8, !tbaa !3
  br label %31, !llvm.loop !24

55:                                               ; preds = %44
  %56 = load ptr, ptr %8, align 8, !tbaa !22
  %57 = call noundef i32 @_ZNK5arrow8DataType2idEv(ptr noundef nonnull align 8 dereferenceable(72) %56)
  %58 = call noundef zeroext i1 @_ZN5arrow14is_fixed_widthENS_4Type4typeE(i32 noundef %57)
  br i1 %58, label %59, label %62

59:                                               ; preds = %55
  %60 = load ptr, ptr %8, align 8, !tbaa !22
  %61 = call noundef zeroext i1 @"_ZZN5arrow4util16IsFixedWidthLikeERKNS_9ArraySpanEbbENK3$_0clERKNS_8DataTypeE"(ptr noundef nonnull align 1 dereferenceable(1) %5, ptr noundef nonnull align 8 dereferenceable(72) %60)
  br label %62

62:                                               ; preds = %59, %55
  %63 = phi i1 [ false, %55 ], [ %61, %59 ]
  store i1 %63, ptr %4, align 1
  store i32 1, ptr %9, align 4
  br label %65

64:                                               ; preds = %41
  store i32 0, ptr %9, align 4
  br label %65

65:                                               ; preds = %64, %62
  call void @llvm.lifetime.end.p0(i64 8, ptr %10) #20
  %66 = load i32, ptr %9, align 4
  switch i32 %66, label %69 [
    i32 0, label %67
  ]

67:                                               ; preds = %65
  br label %68

68:                                               ; preds = %67, %23
  store i1 false, ptr %4, align 1
  store i32 1, ptr %9, align 4
  br label %69

69:                                               ; preds = %68, %65, %22
  call void @llvm.lifetime.end.p0(i64 8, ptr %8) #20
  %70 = load i1, ptr %4, align 1
  ret i1 %70
}

; Function Attrs: mustprogress uwtable
define noundef zeroext i1 @_ZN5arrow4util16IsFixedWidthLikeERKNS_9ArraySpanEbb(ptr noundef nonnull align 8 dereferenceable(128) %0, i1 noundef zeroext %1, i1 noundef zeroext %2) #0 {
  %4 = alloca ptr, align 8
  %5 = alloca i8, align 1
  %6 = alloca i8, align 1
  %7 = alloca %class.anon, align 1
  store ptr %0, ptr %4, align 8, !tbaa !3
  %8 = zext i1 %1 to i8
  store i8 %8, ptr %5, align 1, !tbaa !8
  %9 = zext i1 %2 to i8
  store i8 %9, ptr %6, align 1, !tbaa !8
  %10 = load ptr, ptr %4, align 8, !tbaa !3
  %11 = load i8, ptr %5, align 1, !tbaa !8, !range !10, !noundef !11
  %12 = trunc i8 %11 to i1
  %13 = getelementptr inbounds nuw %class.anon, ptr %7, i32 0, i32 0
  %14 = load i8, ptr %6, align 1, !tbaa !8, !range !10, !noundef !11
  %15 = trunc i8 %14 to i1
  %16 = zext i1 %15 to i8
  store i8 %16, ptr %13, align 1, !tbaa !12
  %17 = getelementptr inbounds nuw %class.anon, ptr %7, i32 0, i32 0
  %18 = load i8, ptr %17, align 1
  %19 = call noundef zeroext i1 @"_ZN5arrow4util16IsFixedWidthLikeIZNS0_16IsFixedWidthLikeERKNS_9ArraySpanEbbE3$_0EEbS4_bT_"(ptr noundef nonnull align 8 dereferenceable(128) %10, i1 noundef zeroext %12, i8 %18)
  ret i1 %19
}