; Function Attrs: mustprogress uwtable
define noundef zeroext i1 @_ZN5arrow4util16IsFixedWidthLikeERKNS_9ArraySpanEbb(ptr noundef nonnull readonly align 8 captures(none) dereferenceable(128) %0, i1 noundef zeroext %1, i1 noundef zeroext %2) local_unnamed_addr #0 {
  %.val = load ptr, ptr %0, align 8, !tbaa !3
  %4 = getelementptr inbounds nuw i8, ptr %0, i64 104
  %.val2 = load ptr, ptr %4, align 8
  %5 = getelementptr i8, ptr %.val, i64 40
  %.val.val = load i32, ptr %5, align 8, !tbaa !15
  switch i32 %.val.val, label %"_ZN5arrow4util16IsFixedWidthLikeIZNS0_16IsFixedWidthLikeERKNS_9ArraySpanEbbE3$_0EEbS4_bT_.exit" [
    i32 1, label %16
    i32 2, label %16
    i32 3, label %16
    i32 4, label %16
    i32 5, label %16
    i32 6, label %16
    i32 7, label %16
    i32 8, label %16
    i32 9, label %16
    i32 10, label %16
    i32 11, label %16
    i32 12, label %16
    i32 16, label %16
    i32 17, label %16
    i32 19, label %16
    i32 20, label %16
    i32 18, label %16
    i32 33, label %16
    i32 21, label %16
    i32 37, label %16
    i32 22, label %16
    i32 29, label %16
    i32 43, label %16
    i32 44, label %16
    i32 23, label %16
    i32 24, label %16
    i32 15, label %16
    i32 32, label %.preheader.i
  ]

.preheader.i:                                     ; preds = %3
  br i1 %1, label %.preheader.split.us.i, label %.preheader.split.i

.preheader.split.us.i:                            ; preds = %.preheader.i
  %6 = tail call noundef i64 @_ZNK5arrow9ArraySpan12GetNullCountEv(ptr noundef nonnull align 8 dereferenceable(128) %.val2)
  %.not.us9.i = icmp eq i64 %6, 0
  br i1 %.not.us9.i, label %.lr.ph11.i, label %"_ZN5arrow4util16IsFixedWidthLikeIZNS0_16IsFixedWidthLikeERKNS_9ArraySpanEbbE3$_0EEbS4_bT_.exit"

.lr.ph11.i:                                       ; preds = %.preheader.split.us.i, %10
  %.0.us10.i = phi ptr [ %12, %10 ], [ %.val2, %.preheader.split.us.i ]
  %7 = load ptr, ptr %.0.us10.i, align 8, !tbaa !3
  %8 = getelementptr inbounds nuw i8, ptr %7, i64 40
  %9 = load i32, ptr %8, align 8, !tbaa !15
  switch i32 %9, label %"_ZN5arrow4util16IsFixedWidthLikeIZNS0_16IsFixedWidthLikeERKNS_9ArraySpanEbbE3$_0EEbS4_bT_.exit" [
    i32 32, label %10
    i32 1, label %.split.us.i
    i32 2, label %.split.us.i
    i32 3, label %.split.us.i
    i32 4, label %.split.us.i
    i32 5, label %.split.us.i
    i32 6, label %.split.us.i
    i32 7, label %.split.us.i
    i32 8, label %.split.us.i
    i32 9, label %.split.us.i
    i32 10, label %.split.us.i
    i32 11, label %.split.us.i
    i32 12, label %.split.us.i
    i32 16, label %.split.us.i
    i32 17, label %.split.us.i
    i32 19, label %.split.us.i
    i32 20, label %.split.us.i
    i32 18, label %.split.us.i
    i32 33, label %.split.us.i
    i32 21, label %.split.us.i
    i32 37, label %.split.us.i
    i32 22, label %.split.us.i
    i32 29, label %.split.us.i
    i32 43, label %.split.us.i
    i32 44, label %.split.us.i
    i32 23, label %.split.us.i
    i32 24, label %.split.us.i
    i32 15, label %.split.us.i
  ]

10:                                               ; preds = %.lr.ph11.i
  %11 = getelementptr inbounds nuw i8, ptr %.0.us10.i, i64 104
  %12 = load ptr, ptr %11, align 8, !tbaa !32
  %13 = tail call noundef i64 @_ZNK5arrow9ArraySpan12GetNullCountEv(ptr noundef nonnull align 8 dereferenceable(128) %12)
  %.not.us.i = icmp eq i64 %13, 0
  br i1 %.not.us.i, label %.lr.ph11.i, label %"_ZN5arrow4util16IsFixedWidthLikeIZNS0_16IsFixedWidthLikeERKNS_9ArraySpanEbbE3$_0EEbS4_bT_.exit", !llvm.loop !33

.preheader.split.i:                               ; preds = %.preheader.i
  %14 = getelementptr inbounds nuw i8, ptr %.val2, i64 16
  %15 = load i64, ptr %14, align 8, !tbaa !35
  %.not6.i = icmp eq i64 %15, 0
  br i1 %.not6.i, label %.lr.ph.i, label %"_ZN5arrow4util16IsFixedWidthLikeIZNS0_16IsFixedWidthLikeERKNS_9ArraySpanEbbE3$_0EEbS4_bT_.exit"

16:                                               ; preds = %3, %3, %3, %3, %3, %3, %3, %3, %3, %3, %3, %3, %3, %3, %3, %3, %3, %3, %3, %3, %3, %3, %3, %3, %3, %3, %3
  br i1 %2, label %"_ZZN5arrow4util16IsFixedWidthLikeERKNS_9ArraySpanEbbENK3$_0clERKNS_8DataTypeE.exit.i", label %"_ZN5arrow4util16IsFixedWidthLikeIZNS0_16IsFixedWidthLikeERKNS_9ArraySpanEbbE3$_0EEbS4_bT_.exit"

"_ZZN5arrow4util16IsFixedWidthLikeERKNS_9ArraySpanEbbENK3$_0clERKNS_8DataTypeE.exit.i": ; preds = %16
  %switch.selectcmp.case1.i = icmp ne i32 %.val.val, 29
  %switch.selectcmp.case2.i = icmp ne i32 %.val.val, 1
  %switch.selectcmp.not.i = and i1 %switch.selectcmp.case1.i, %switch.selectcmp.case2.i
  br label %"_ZN5arrow4util16IsFixedWidthLikeIZNS0_16IsFixedWidthLikeERKNS_9ArraySpanEbbE3$_0EEbS4_bT_.exit"

.lr.ph.i:                                         ; preds = %.preheader.split.i, %20
  %.07.i = phi ptr [ %22, %20 ], [ %.val2, %.preheader.split.i ]
  %17 = load ptr, ptr %.07.i, align 8, !tbaa !3
  %18 = getelementptr inbounds nuw i8, ptr %17, i64 40
  %19 = load i32, ptr %18, align 8, !tbaa !15
  switch i32 %19, label %"_ZN5arrow4util16IsFixedWidthLikeIZNS0_16IsFixedWidthLikeERKNS_9ArraySpanEbbE3$_0EEbS4_bT_.exit" [
    i32 32, label %20
    i32 1, label %.split.us.i
    i32 2, label %.split.us.i
    i32 3, label %.split.us.i
    i32 4, label %.split.us.i
    i32 5, label %.split.us.i
    i32 6, label %.split.us.i
    i32 7, label %.split.us.i
    i32 8, label %.split.us.i
    i32 9, label %.split.us.i
    i32 10, label %.split.us.i
    i32 11, label %.split.us.i
    i32 12, label %.split.us.i
    i32 16, label %.split.us.i
    i32 17, label %.split.us.i
    i32 19, label %.split.us.i
    i32 20, label %.split.us.i
    i32 18, label %.split.us.i
    i32 33, label %.split.us.i
    i32 21, label %.split.us.i
    i32 37, label %.split.us.i
    i32 22, label %.split.us.i
    i32 29, label %.split.us.i
    i32 43, label %.split.us.i
    i32 44, label %.split.us.i
    i32 23, label %.split.us.i
    i32 24, label %.split.us.i
    i32 15, label %.split.us.i
  ]

20:                                               ; preds = %.lr.ph.i
  %21 = getelementptr inbounds nuw i8, ptr %.07.i, i64 104
  %22 = load ptr, ptr %21, align 8, !tbaa !32
  %23 = getelementptr inbounds nuw i8, ptr %22, i64 16
  %24 = load i64, ptr %23, align 8, !tbaa !35
  %.not.i = icmp eq i64 %24, 0
  br i1 %.not.i, label %.lr.ph.i, label %"_ZN5arrow4util16IsFixedWidthLikeIZNS0_16IsFixedWidthLikeERKNS_9ArraySpanEbbE3$_0EEbS4_bT_.exit", !llvm.loop !33

.split.us.i:                                      ; preds = %.lr.ph.i, %.lr.ph.i, %.lr.ph.i, %.lr.ph.i, %.lr.ph.i, %.lr.ph.i, %.lr.ph.i, %.lr.ph.i, %.lr.ph.i, %.lr.ph.i, %.lr.ph.i, %.lr.ph.i, %.lr.ph.i, %.lr.ph.i, %.lr.ph.i, %.lr.ph.i, %.lr.ph.i, %.lr.ph.i, %.lr.ph.i, %.lr.ph.i, %.lr.ph.i, %.lr.ph.i, %.lr.ph.i, %.lr.ph.i, %.lr.ph.i, %.lr.ph.i, %.lr.ph.i, %.lr.ph11.i, %.lr.ph11.i, %.lr.ph11.i, %.lr.ph11.i, %.lr.ph11.i, %.lr.ph11.i, %.lr.ph11.i, %.lr.ph11.i, %.lr.ph11.i, %.lr.ph11.i, %.lr.ph11.i, %.lr.ph11.i, %.lr.ph11.i, %.lr.ph11.i, %.lr.ph11.i, %.lr.ph11.i, %.lr.ph11.i, %.lr.ph11.i, %.lr.ph11.i, %.lr.ph11.i, %.lr.ph11.i, %.lr.ph11.i, %.lr.ph11.i, %.lr.ph11.i, %.lr.ph11.i, %.lr.ph11.i, %.lr.ph11.i
  %.us-phi.i = phi i32 [ %9, %.lr.ph11.i ], [ %9, %.lr.ph11.i ], [ %9, %.lr.ph11.i ], [ %9, %.lr.ph11.i ], [ %9, %.lr.ph11.i ], [ %9, %.lr.ph11.i ], [ %9, %.lr.ph11.i ], [ %9, %.lr.ph11.i ], [ %9, %.lr.ph11.i ], [ %9, %.lr.ph11.i ], [ %9, %.lr.ph11.i ], [ %9, %.lr.ph11.i ], [ %9, %.lr.ph11.i ], [ %9, %.lr.ph11.i ], [ %9, %.lr.ph11.i ], [ %9, %.lr.ph11.i ], [ %9, %.lr.ph11.i ], [ %9, %.lr.ph11.i ], [ %9, %.lr.ph11.i ], [ %9, %.lr.ph11.i ], [ %9, %.lr.ph11.i ], [ %9, %.lr.ph11.i ], [ %9, %.lr.ph11.i ], [ %9, %.lr.ph11.i ], [ %9, %.lr.ph11.i ], [ %9, %.lr.ph11.i ], [ %9, %.lr.ph11.i ], [ %19, %.lr.ph.i ], [ %19, %.lr.ph.i ], [ %19, %.lr.ph.i ], [ %19, %.lr.ph.i ], [ %19, %.lr.ph.i ], [ %19, %.lr.ph.i ], [ %19, %.lr.ph.i ], [ %19, %.lr.ph.i ], [ %19, %.lr.ph.i ], [ %19, %.lr.ph.i ], [ %19, %.lr.ph.i ], [ %19, %.lr.ph.i ], [ %19, %.lr.ph.i ], [ %19, %.lr.ph.i ], [ %19, %.lr.ph.i ], [ %19, %.lr.ph.i ], [ %19, %.lr.ph.i ], [ %19, %.lr.ph.i ], [ %19, %.lr.ph.i ], [ %19, %.lr.ph.i ], [ %19, %.lr.ph.i ], [ %19, %.lr.ph.i ], [ %19, %.lr.ph.i ], [ %19, %.lr.ph.i ], [ %19, %.lr.ph.i ], [ %19, %.lr.ph.i ], [ %19, %.lr.ph.i ]
  br i1 %2, label %25, label %"_ZN5arrow4util16IsFixedWidthLikeIZNS0_16IsFixedWidthLikeERKNS_9ArraySpanEbbE3$_0EEbS4_bT_.exit"

25:                                               ; preds = %.split.us.i
  %.not.i20.i = icmp ne i32 %.us-phi.i, 29
  %26 = icmp ne i32 %.us-phi.i, 1
  %spec.select.i21.i = and i1 %.not.i20.i, %26
  br label %"_ZN5arrow4util16IsFixedWidthLikeIZNS0_16IsFixedWidthLikeERKNS_9ArraySpanEbbE3$_0EEbS4_bT_.exit"

"_ZN5arrow4util16IsFixedWidthLikeIZNS0_16IsFixedWidthLikeERKNS_9ArraySpanEbbE3$_0EEbS4_bT_.exit": ; preds = %.lr.ph.i, %20, %.lr.ph11.i, %10, %3, %.preheader.split.us.i, %.preheader.split.i, %16, %"_ZZN5arrow4util16IsFixedWidthLikeERKNS_9ArraySpanEbbENK3$_0clERKNS_8DataTypeE.exit.i", %.split.us.i, %25
  %.015.i = phi i1 [ true, %16 ], [ %spec.select.i21.i, %25 ], [ true, %.split.us.i ], [ false, %3 ], [ %switch.selectcmp.not.i, %"_ZZN5arrow4util16IsFixedWidthLikeERKNS_9ArraySpanEbbENK3$_0clERKNS_8DataTypeE.exit.i" ], [ false, %.preheader.split.i ], [ false, %.preheader.split.us.i ], [ false, %10 ], [ false, %.lr.ph11.i ], [ false, %20 ], [ false, %.lr.ph.i ]
  ret i1 %.015.i
}